target datalayout = "e-m:e-p270:32:32-p271:32:32-p272:64:64-i64:64-i128:128-f80:128-n8:16:32:64-S128"
target triple = "x86_64-unknown-linux-gnu"

%"class.std::__shared_count" = type { ptr }
%"class.std::shared_ptr.3" = type { %"class.std::__shared_ptr.4" }
%"class.std::__shared_ptr.4" = type { ptr, %"class.std::__shared_count" }
%"class.facebook::velox::BaseVector.base" = type <{ ptr, %"class.std::shared_ptr.0", i8, [3 x i8], i32, %"class.boost::intrusive_ptr", ptr, ptr, i32, %"class.std::optional", %"class.std::optional", %"class.std::optional", %"class.std::optional", i32, i8, i8, i8 }>
%"class.std::shared_ptr.0" = type { %"class.std::__shared_ptr.1" }
%"class.std::__shared_ptr.1" = type { ptr, %"class.std::__shared_count" }
%"class.boost::intrusive_ptr" = type { ptr }
%"class.std::optional" = type { %"struct.std::_Optional_base" }
%"struct.std::_Optional_base" = type { %"struct.std::_Optional_payload" }
%"struct.std::_Optional_payload" = type { %"struct.std::_Optional_payload_base.base", [3 x i8] }
%"struct.std::_Optional_payload_base.base" = type <{ %"union.std::_Optional_payload_base<int>::_Storage", i8 }>
%"union.std::_Optional_payload_base<int>::_Storage" = type { i32 }
%"struct.facebook::velox::ArrayVectorBase" = type { %"class.facebook::velox::BaseVector.base", %"class.boost::intrusive_ptr", ptr, %"class.boost::intrusive_ptr", ptr }
%"class.facebook::velox::ArrayVector" = type { %"struct.facebook::velox::ArrayVectorBase", %"class.std::shared_ptr.3" }

; Function Attrs: mustprogress nounwind uwtable
define linkonce_odr noundef ptr @_ZNKSt12__shared_ptrIN8facebook5velox10BaseVectorELN9__gnu_cxx12_Lock_policyE2EE3getEv(ptr noundef nonnull align 8 dereferenceable(16) %this) #3 comdat align 2 {
entry:
  %this.addr = alloca ptr, align 8
  store ptr %this, ptr %this.addr, align 8
  %this1 = load ptr, ptr %this.addr, align 8
  %_M_ptr = getelementptr inbounds %"class.std::__shared_ptr.4", ptr %this1, i32 0, i32 0
  %0 = load ptr, ptr %_M_ptr, align 8
  ret ptr %0
}

; Function Attrs: mustprogress nounwind uwtable
define linkonce_odr noundef i64 @_ZN8facebook5velox4bits18commutativeHashMixEmm(i64 noundef %upper, i64 noundef %lower) #3 comdat {
entry:
  %upper.addr = alloca i64, align 8
  %lower.addr = alloca i64, align 8
  store i64 %upper, ptr %upper.addr, align 8
  store i64 %lower, ptr %lower.addr, align 8
  %0 = load i64, ptr %upper.addr, align 8
  %1 = load i64, ptr %lower.addr, align 8
  %add = add i64 %0, %1
  %mul = mul i64 %add, 2779
  %add1 = add i64 3860031, %mul
  %2 = load i64, ptr %upper.addr, align 8
  %3 = load i64, ptr %lower.addr, align 8
  %mul2 = mul i64 %2, %3
  %mul3 = mul i64 %mul2, 2
  %add4 = add i64 %add1, %mul3
  ret i64 %add4
}

; Function Attrs: mustprogress nounwind uwtable
define linkonce_odr noundef ptr @_ZNKSt19__shared_ptr_accessIN8facebook5velox10BaseVectorELN9__gnu_cxx12_Lock_policyE2ELb0ELb0EE6_M_getEv(ptr noundef nonnull align 1 dereferenceable(1) %this) #3 comdat align 2 {
entry:
  %this.addr = alloca ptr, align 8
  store ptr %this, ptr %this.addr, align 8
  %this1 = load ptr, ptr %this.addr, align 8
  %call = call noundef ptr @_ZNKSt12__shared_ptrIN8facebook5velox10BaseVectorELN9__gnu_cxx12_Lock_policyE2EE3getEv(ptr noundef nonnull align 8 dereferenceable(16) %this1) #18
  ret ptr %call
}

; Function Attrs: mustprogress uwtable
define internal noundef i64 @_ZN8facebook5velox12_GLOBAL__N_19hashArrayEmRKNS0_10BaseVectorEii(i64 noundef %hash, ptr noundef nonnull align 8 dereferenceable(99) %elements, i32 noundef %offset, i32 noundef %size) #0 {
entry:
  %hash.addr = alloca i64, align 8
  %elements.addr = alloca ptr, align 8
  %offset.addr = alloca i32, align 4
  %size.addr = alloca i32, align 4
  %i = alloca i32, align 4
  %elementHash = alloca i64, align 8
  store i64 %hash, ptr %hash.addr, align 8
  store ptr %elements, ptr %elements.addr, align 8
  store i32 %offset, ptr %offset.addr, align 4
  store i32 %size, ptr %size.addr, align 4
  store i32 0, ptr %i, align 4
  br label %for.cond

for.cond:                                         ; preds = %for.inc, %entry
  %0 = load i32, ptr %i, align 4
  %1 = load i32, ptr %size.addr, align 4
  %cmp = icmp slt i32 %0, %1
  br i1 %cmp, label %for.body, label %for.end

for.body:                                         ; preds = %for.cond
  %2 = load ptr, ptr %elements.addr, align 8
  %3 = load i32, ptr %offset.addr, align 4
  %4 = load i32, ptr %i, align 4
  %add = add nsw i32 %3, %4
  %vtable = load ptr, ptr %2, align 8
  %vfn = getelementptr inbounds ptr, ptr %vtable, i64 13
  %5 = load ptr, ptr %vfn, align 8
  %call = call noundef i64 %5(ptr noundef nonnull align 8 dereferenceable(99) %2, i32 noundef %add)
  store i64 %call, ptr %elementHash, align 8
  %6 = load i64, ptr %hash.addr, align 8
  %7 = load i64, ptr %elementHash, align 8
  %call1 = call noundef i64 @_ZN8facebook5velox4bits18commutativeHashMixEmm(i64 noundef %6, i64 noundef %7) #18
  store i64 %call1, ptr %hash.addr, align 8
  br label %for.inc

for.inc:                                          ; preds = %for.body
  %8 = load i32, ptr %i, align 4
  %inc = add nsw i32 %8, 1
  store i32 %inc, ptr %i, align 4
  br label %for.cond, !llvm.loop !34

for.end:                                          ; preds = %for.cond
  %9 = load i64, ptr %hash.addr, align 8
  ret i64 %9
}

; Function Attrs: mustprogress nounwind uwtable
define linkonce_odr noundef nonnull align 8 dereferenceable(99) ptr @_ZNKSt19__shared_ptr_accessIN8facebook5velox10BaseVectorELN9__gnu_cxx12_Lock_policyE2ELb0ELb0EEdeEv(ptr noundef nonnull align 1 dereferenceable(1) %this) #3 comdat align 2 {
entry:
  %this.addr = alloca ptr, align 8
  store ptr %this, ptr %this.addr, align 8
  %this1 = load ptr, ptr %this.addr, align 8
  br label %do.body

do.body:                                          ; preds = %entry
  br label %do.cond

do.cond:                                          ; preds = %do.body
  br label %do.end

do.end:                                           ; preds = %do.cond
  %call = call noundef ptr @_ZNKSt19__shared_ptr_accessIN8facebook5velox10BaseVectorELN9__gnu_cxx12_Lock_policyE2ELb0ELb0EE6_M_getEv(ptr noundef nonnull align 1 dereferenceable(1) %this1) #18
  ret ptr %call
}

; Function Attrs: mustprogress uwtable
define noundef i64 @_ZNK8facebook5velox11ArrayVector11hashValueAtEi(ptr noundef nonnull align 8 dereferenceable(152) %this, i32 noundef %index) unnamed_addr #0 align 2 {
entry:
  %retval = alloca i64, align 8
  %this.addr = alloca ptr, align 8
  %index.addr = alloca i32, align 4
  store ptr %this, ptr %this.addr, align 8
  store i32 %index, ptr %index.addr, align 4
  %this1 = load ptr, ptr %this.addr, align 8
  %0 = load i32, ptr %index.addr, align 4
  %vtable = load ptr, ptr %this1, align 8
  %vfn = getelementptr inbounds ptr, ptr %vtable, i64 4
  %1 = load ptr, ptr %vfn, align 8
  %call = call noundef zeroext i1 %1(ptr noundef nonnull align 8 dereferenceable(99) %this1, i32 noundef %0)
  br i1 %call, label %if.then, label %if.end

if.then:                                          ; preds = %entry
  store i64 1, ptr %retval, align 8
  br label %return

if.end:                                           ; preds = %entry
  %elements_ = getelementptr inbounds %"class.facebook::velox::ArrayVector", ptr %this1, i32 0, i32 1
  %call2 = call noundef nonnull align 8 dereferenceable(99) ptr @_ZNKSt19__shared_ptr_accessIN8facebook5velox10BaseVectorELN9__gnu_cxx12_Lock_policyE2ELb0ELb0EEdeEv(ptr noundef nonnull align 1 dereferenceable(1) %elements_) #18
  %rawOffsets_ = getelementptr inbounds %"struct.facebook::velox::ArrayVectorBase", ptr %this1, i32 0, i32 2
  %2 = load ptr, ptr %rawOffsets_, align 8
  %3 = load i32, ptr %index.addr, align 4
  %idxprom = sext i32 %3 to i64
  %arrayidx = getelementptr inbounds i32, ptr %2, i64 %idxprom
  %4 = load i32, ptr %arrayidx, align 4
  %rawSizes_ = getelementptr inbounds %"struct.facebook::velox::ArrayVectorBase", ptr %this1, i32 0, i32 4
  %5 = load ptr, ptr %rawSizes_, align 8
  %6 = load i32, ptr %index.addr, align 4
  %idxprom3 = sext i32 %6 to i64
  %arrayidx4 = getelementptr inbounds i32, ptr %5, i64 %idxprom3
  %7 = load i32, ptr %arrayidx4, align 4
  %call5 = call noundef i64 @_ZN8facebook5velox12_GLOBAL__N_19hashArrayEmRKNS0_10BaseVectorEii(i64 noundef 1, ptr noundef nonnull align 8 dereferenceable(99) %call2, i32 noundef %4, i32 noundef %7)
  store i64 %call5, ptr %retval, align 8
  br label %return

return:                                           ; preds = %if.end, %if.then
  %8 = load i64, ptr %retval, align 8
  ret i64 %8
}