; Function Attrs: mustprogress uwtable
define noundef i64 @_ZNK8facebook5velox11ArrayVector11hashValueAtEi(ptr noundef nonnull align 8 dereferenceable(152) %this, i32 noundef %index) unnamed_addr #0 align 2 {
entry:
  %vtable = load ptr, ptr %this, align 8
  %vfn = getelementptr inbounds i8, ptr %vtable, i64 32
  %0 = load ptr, ptr %vfn, align 8
  %call = tail call noundef zeroext i1 %0(ptr noundef nonnull align 8 dereferenceable(99) %this, i32 noundef %index)
  br i1 %call, label %return, label %if.end

if.end:                                           ; preds = %entry
  %elements_ = getelementptr inbounds i8, ptr %this, i64 136
  %1 = load ptr, ptr %elements_, align 8
  %rawOffsets_ = getelementptr inbounds i8, ptr %this, i64 112
  %2 = load ptr, ptr %rawOffsets_, align 8
  %idxprom = sext i32 %index to i64
  %arrayidx = getelementptr inbounds i32, ptr %2, i64 %idxprom
  %3 = load i32, ptr %arrayidx, align 4
  %rawSizes_ = getelementptr inbounds i8, ptr %this, i64 128
  %4 = load ptr, ptr %rawSizes_, align 8
  %arrayidx4 = getelementptr inbounds i32, ptr %4, i64 %idxprom
  %5 = load i32, ptr %arrayidx4, align 4
  %cmp4.i = icmp sgt i32 %5, 0
  br i1 %cmp4.i, label %for.body.i, label %return

for.body.i:                                       ; preds = %if.end, %for.body.i
  %hash.addr.06.i = phi i64 [ %add4.i.i, %for.body.i ], [ 1, %if.end ]
  %i.05.i = phi i32 [ %inc.i, %for.body.i ], [ 0, %if.end ]
  %add.i = add nsw i32 %i.05.i, %3
  %vtable.i = load ptr, ptr %1, align 8
  %vfn.i = getelementptr inbounds i8, ptr %vtable.i, i64 104
  %6 = load ptr, ptr %vfn.i, align 8
  %call.i = tail call noundef i64 %6(ptr noundef nonnull align 8 dereferenceable(99) %1, i32 noundef %add.i)
  %add.i.i = add i64 %call.i, %hash.addr.06.i
  %mul.i.i = mul i64 %add.i.i, 2779
  %mul2.i.i = shl i64 %hash.addr.06.i, 1
  %mul3.i.i = mul i64 %mul2.i.i, %call.i
  %add1.i.i = add i64 %mul3.i.i, 3860031
  %add4.i.i = add i64 %add1.i.i, %mul.i.i
  %inc.i = add nuw nsw i32 %i.05.i, 1
  %exitcond.not.i = icmp eq i32 %inc.i, %5
  br i1 %exitcond.not.i, label %return, label %for.body.i, !llvm.loop !77

return:                                           ; preds = %for.body.i, %if.end, %entry
  %retval.0 = phi i64 [ 1, %entry ], [ 1, %if.end ], [ %add4.i.i, %for.body.i ]
  ret i64 %retval.0
}